target datalayout = "e-m:e-p270:32:32-p271:32:32-p272:64:64-i64:64-i128:128-f80:128-n8:16:32:64-S128"
target triple = "x86_64-pc-linux-gnu"

%class.Register = type { i32 }
%class.StubCodeMark = type { ptr, ptr }
%class.StubCodeGenerator = type { ptr, i8, ptr }
%class.CodeSection = type { ptr, ptr, ptr, ptr, ptr, ptr, ptr, ptr, i8, i8, i32, i8, ptr }
%class.AbstractAssembler = type { ptr, ptr, ptr }

@.str = private unnamed_addr constant [13 x i8] c"StubRoutines\00", align 1
@_ZL3rbx = internal constant %class.Register { i32 3 }, align 4
@_ZL3r12 = internal constant %class.Register { i32 12 }, align 4
@_ZL3r13 = internal constant %class.Register { i32 13 }, align 4
@_ZL3r14 = internal constant %class.Register { i32 14 }, align 4
@_ZL3r15 = internal constant %class.Register { i32 15 }, align 4
@_ZL3rax = internal constant %class.Register zeroinitializer, align 4
@_ZL3rdx = internal constant %class.Register { i32 2 }, align 4
@CodeEntryAlignment = external global i64, align 8
@_ZL2r9 = internal constant %class.Register { i32 9 }, align 4
@_ZL3r10 = internal constant %class.Register { i32 10 }, align 4
@_ZL3rdi = internal constant %class.Register { i32 7 }, align 4
@_ZL3rsi = internal constant %class.Register { i32 6 }, align 4
@_ZL3r11 = internal constant %class.Register { i32 11 }, align 4
@_ZL3rcx = internal constant %class.Register { i32 1 }, align 4
@_ZL2r8 = internal constant %class.Register { i32 8 }, align 4
@.str.44 = private unnamed_addr constant [14 x i8] c"multiplyToLen\00", align 1

; Function Attrs: mustprogress nounwind uwtable
define linkonce_odr hidden noundef ptr @_ZNK11CodeSection3endEv(ptr noundef nonnull align 8 dereferenceable(88) %0) #1 comdat align 2 {
  %2 = alloca ptr, align 8
  store ptr %0, ptr %2, align 8
  %3 = load ptr, ptr %2, align 8
  %4 = getelementptr inbounds %class.CodeSection, ptr %3, i32 0, i32 2
  %5 = load ptr, ptr %4, align 8
  ret ptr %5
}

; Function Attrs: mustprogress nounwind uwtable
define linkonce_odr hidden noundef ptr @_ZNK17AbstractAssembler12code_sectionEv(ptr noundef nonnull align 8 dereferenceable(24) %0) #1 comdat align 2 {
  %2 = alloca ptr, align 8
  store ptr %0, ptr %2, align 8
  %3 = load ptr, ptr %2, align 8
  %4 = getelementptr inbounds %class.AbstractAssembler, ptr %3, i32 0, i32 1
  %5 = load ptr, ptr %4, align 8
  ret ptr %5
}

; Function Attrs: mustprogress nounwind uwtable
define hidden void @_ZN13StubGenerator16restore_arg_regsEv(ptr noundef nonnull align 8 dereferenceable(24) %0) #1 align 2 {
  %2 = alloca ptr, align 8
  %3 = alloca %class.Register, align 4
  %4 = alloca %class.Register, align 4
  store ptr %0, ptr %2, align 8
  call void @llvm.memcpy.p0.p0.i64(ptr align 4 %3, ptr align 4 @_ZL2r9, i64 4, i1 false)
  call void @llvm.memcpy.p0.p0.i64(ptr align 4 %4, ptr align 4 @_ZL3r10, i64 4, i1 false)
  ret void
}

; Function Attrs: mustprogress nounwind uwtable
define hidden void @_ZN13StubGenerator14setup_arg_regsEi(ptr noundef nonnull align 8 dereferenceable(24) %0, i32 noundef %1) #1 align 2 {
  %3 = alloca ptr, align 8
  %4 = alloca i32, align 4
  %5 = alloca %class.Register, align 4
  %6 = alloca %class.Register, align 4
  store ptr %0, ptr %3, align 8
  store i32 %1, ptr %4, align 4
  call void @llvm.memcpy.p0.p0.i64(ptr align 4 %5, ptr align 4 @_ZL2r9, i64 4, i1 false)
  call void @llvm.memcpy.p0.p0.i64(ptr align 4 %6, ptr align 4 @_ZL3r10, i64 4, i1 false)
  ret void
}

; Function Attrs: mustprogress nounwind uwtable
define linkonce_odr hidden noundef ptr @_ZNK17AbstractAssembler2pcEv(ptr noundef nonnull align 8 dereferenceable(24) %0) #1 comdat align 2 {
  %2 = alloca ptr, align 8
  store ptr %0, ptr %2, align 8
  %3 = load ptr, ptr %2, align 8
  %4 = call noundef ptr @_ZNK17AbstractAssembler12code_sectionEv(ptr noundef nonnull align 8 dereferenceable(24) %3)
  %5 = call noundef ptr @_ZNK11CodeSection3endEv(ptr noundef nonnull align 8 dereferenceable(88) %4)
  ret ptr %5
}

; Function Attrs: mustprogress nounwind uwtable
define hidden noundef ptr @_ZN13StubGenerator22generate_multiplyToLenEv(ptr noundef nonnull align 8 dereferenceable(24) %0) #1 align 2 {
  %2 = alloca ptr, align 8
  %3 = alloca %class.StubCodeMark, align 8
  %4 = alloca ptr, align 8
  %5 = alloca %class.Register, align 4
  %6 = alloca %class.Register, align 4
  %7 = alloca %class.Register, align 4
  %8 = alloca %class.Register, align 4
  %9 = alloca %class.Register, align 4
  %10 = alloca %class.Register, align 4
  %11 = alloca %class.Register, align 4
  %12 = alloca %class.Register, align 4
  %13 = alloca %class.Register, align 4
  %14 = alloca %class.Register, align 4
  %15 = alloca %class.Register, align 4
  %16 = alloca %class.Register, align 4
  %17 = alloca %class.Register, align 4
  %18 = alloca %class.Register, align 4
  %19 = alloca %class.Register, align 4
  %20 = alloca %class.Register, align 4
  %21 = alloca %class.Register, align 4
  %22 = alloca %class.Register, align 4
  %23 = alloca %class.Register, align 4
  %24 = alloca %class.Register, align 4
  %25 = alloca %class.Register, align 4
  %26 = alloca %class.Register, align 4
  %27 = alloca %class.Register, align 4
  %28 = alloca %class.Register, align 4
  %29 = alloca %class.Register, align 4
  %30 = alloca %class.Register, align 4
  store ptr %0, ptr %2, align 8
  %31 = load ptr, ptr %2, align 8
  %32 = getelementptr inbounds %class.StubCodeGenerator, ptr %31, i32 0, i32 2
  %33 = load ptr, ptr %32, align 8
  %34 = load i64, ptr @CodeEntryAlignment, align 8
  %35 = trunc i64 %34 to i32
  call void @_ZN14MacroAssembler5alignEj(ptr noundef nonnull align 8 dereferenceable(40) %33, i32 noundef %35)
  call void @_ZN12StubCodeMarkC1EP17StubCodeGeneratorPKcS3_(ptr noundef nonnull align 8 dereferenceable(16) %3, ptr noundef %31, ptr noundef @.str, ptr noundef @.str.44)
  %36 = getelementptr inbounds %class.StubCodeGenerator, ptr %31, i32 0, i32 2
  %37 = load ptr, ptr %36, align 8
  %38 = call noundef ptr @_ZNK17AbstractAssembler2pcEv(ptr noundef nonnull align 8 dereferenceable(24) %37)
  store ptr %38, ptr %4, align 8
  call void @llvm.memcpy.p0.p0.i64(ptr align 4 %5, ptr align 4 @_ZL3rdi, i64 4, i1 false)
  call void @llvm.memcpy.p0.p0.i64(ptr align 4 %6, ptr align 4 @_ZL3rax, i64 4, i1 false)
  call void @llvm.memcpy.p0.p0.i64(ptr align 4 %7, ptr align 4 @_ZL3rsi, i64 4, i1 false)
  call void @llvm.memcpy.p0.p0.i64(ptr align 4 %8, ptr align 4 @_ZL3rcx, i64 4, i1 false)
  call void @llvm.memcpy.p0.p0.i64(ptr align 4 %9, ptr align 4 @_ZL2r8, i64 4, i1 false)
  call void @llvm.memcpy.p0.p0.i64(ptr align 4 %10, ptr align 4 @_ZL3r11, i64 4, i1 false)
  call void @llvm.memcpy.p0.p0.i64(ptr align 4 %11, ptr align 4 @_ZL3r12, i64 4, i1 false)
  call void @llvm.memcpy.p0.p0.i64(ptr align 4 %12, ptr align 4 @_ZL3r13, i64 4, i1 false)
  call void @llvm.memcpy.p0.p0.i64(ptr align 4 %13, ptr align 4 @_ZL3r14, i64 4, i1 false)
  call void @llvm.memcpy.p0.p0.i64(ptr align 4 %14, ptr align 4 @_ZL3r15, i64 4, i1 false)
  call void @llvm.memcpy.p0.p0.i64(ptr align 4 %15, ptr align 4 @_ZL3rbx, i64 4, i1 false)
  %39 = getelementptr inbounds %class.StubCodeGenerator, ptr %31, i32 0, i32 2
  %40 = load ptr, ptr %39, align 8
  call void @_ZN14MacroAssembler5enterEv(ptr noundef nonnull align 8 dereferenceable(40) %40)
  call void @_ZN13StubGenerator14setup_arg_regsEi(ptr noundef nonnull align 8 dereferenceable(24) %31, i32 noundef 4)
  %41 = getelementptr inbounds %class.StubCodeGenerator, ptr %31, i32 0, i32 2
  %42 = load ptr, ptr %41, align 8
  call void @llvm.memcpy.p0.p0.i64(ptr align 4 %16, ptr align 4 %6, i64 4, i1 false)
  call void @llvm.memcpy.p0.p0.i64(ptr align 4 %17, ptr align 4 @_ZL3rsi, i64 4, i1 false)
  %43 = getelementptr inbounds %class.Register, ptr %16, i32 0, i32 0
  %44 = load i32, ptr %43, align 4
  %45 = getelementptr inbounds %class.Register, ptr %17, i32 0, i32 0
  %46 = load i32, ptr %45, align 4
  call void @_ZN14MacroAssembler6movptrE8RegisterS0_(ptr noundef nonnull align 8 dereferenceable(40) %42, i32 %44, i32 %46)
  %47 = getelementptr inbounds %class.StubCodeGenerator, ptr %31, i32 0, i32 2
  %48 = load ptr, ptr %47, align 8
  call void @llvm.memcpy.p0.p0.i64(ptr align 4 %18, ptr align 4 %7, i64 4, i1 false)
  call void @llvm.memcpy.p0.p0.i64(ptr align 4 %19, ptr align 4 @_ZL3rdx, i64 4, i1 false)
  %49 = getelementptr inbounds %class.Register, ptr %18, i32 0, i32 0
  %50 = load i32, ptr %49, align 4
  %51 = getelementptr inbounds %class.Register, ptr %19, i32 0, i32 0
  %52 = load i32, ptr %51, align 4
  call void @_ZN14MacroAssembler6movptrE8RegisterS0_(ptr noundef nonnull align 8 dereferenceable(40) %48, i32 %50, i32 %52)
  %53 = getelementptr inbounds %class.StubCodeGenerator, ptr %31, i32 0, i32 2
  %54 = load ptr, ptr %53, align 8
  call void @llvm.memcpy.p0.p0.i64(ptr align 4 %20, ptr align 4 %5, i64 4, i1 false)
  call void @llvm.memcpy.p0.p0.i64(ptr align 4 %21, ptr align 4 %6, i64 4, i1 false)
  call void @llvm.memcpy.p0.p0.i64(ptr align 4 %22, ptr align 4 %7, i64 4, i1 false)
  call void @llvm.memcpy.p0.p0.i64(ptr align 4 %23, ptr align 4 %8, i64 4, i1 false)
  call void @llvm.memcpy.p0.p0.i64(ptr align 4 %24, ptr align 4 %9, i64 4, i1 false)
  call void @llvm.memcpy.p0.p0.i64(ptr align 4 %25, ptr align 4 %10, i64 4, i1 false)
  call void @llvm.memcpy.p0.p0.i64(ptr align 4 %26, ptr align 4 %11, i64 4, i1 false)
  call void @llvm.memcpy.p0.p0.i64(ptr align 4 %27, ptr align 4 %12, i64 4, i1 false)
  call void @llvm.memcpy.p0.p0.i64(ptr align 4 %28, ptr align 4 %13, i64 4, i1 false)
  call void @llvm.memcpy.p0.p0.i64(ptr align 4 %29, ptr align 4 %14, i64 4, i1 false)
  call void @llvm.memcpy.p0.p0.i64(ptr align 4 %30, ptr align 4 %15, i64 4, i1 false)
  %55 = getelementptr inbounds %class.Register, ptr %20, i32 0, i32 0
  %56 = load i32, ptr %55, align 4
  %57 = getelementptr inbounds %class.Register, ptr %21, i32 0, i32 0
  %58 = load i32, ptr %57, align 4
  %59 = getelementptr inbounds %class.Register, ptr %22, i32 0, i32 0
  %60 = load i32, ptr %59, align 4
  %61 = getelementptr inbounds %class.Register, ptr %23, i32 0, i32 0
  %62 = load i32, ptr %61, align 4
  %63 = getelementptr inbounds %class.Register, ptr %24, i32 0, i32 0
  %64 = load i32, ptr %63, align 4
  %65 = getelementptr inbounds %class.Register, ptr %25, i32 0, i32 0
  %66 = load i32, ptr %65, align 4
  %67 = getelementptr inbounds %class.Register, ptr %26, i32 0, i32 0
  %68 = load i32, ptr %67, align 4
  %69 = getelementptr inbounds %class.Register, ptr %27, i32 0, i32 0
  %70 = load i32, ptr %69, align 4
  %71 = getelementptr inbounds %class.Register, ptr %28, i32 0, i32 0
  %72 = load i32, ptr %71, align 4
  %73 = getelementptr inbounds %class.Register, ptr %29, i32 0, i32 0
  %74 = load i32, ptr %73, align 4
  %75 = getelementptr inbounds %class.Register, ptr %30, i32 0, i32 0
  %76 = load i32, ptr %75, align 4
  call void @_ZN14MacroAssembler15multiply_to_lenE8RegisterS0_S0_S0_S0_S0_S0_S0_S0_S0_S0_(ptr noundef nonnull align 8 dereferenceable(40) %54, i32 %56, i32 %58, i32 %60, i32 %62, i32 %64, i32 %66, i32 %68, i32 %70, i32 %72, i32 %74, i32 %76)
  call void @_ZN13StubGenerator16restore_arg_regsEv(ptr noundef nonnull align 8 dereferenceable(24) %31)
  %77 = getelementptr inbounds %class.StubCodeGenerator, ptr %31, i32 0, i32 2
  %78 = load ptr, ptr %77, align 8
  call void @_ZN14MacroAssembler5leaveEv(ptr noundef nonnull align 8 dereferenceable(40) %78)
  %79 = getelementptr inbounds %class.StubCodeGenerator, ptr %31, i32 0, i32 2
  %80 = load ptr, ptr %79, align 8
  call void @_ZN9Assembler3retEi(ptr noundef nonnull align 8 dereferenceable(40) %80, i32 noundef 0)
  %81 = load ptr, ptr %4, align 8
  call void @_ZN12StubCodeMarkD1Ev(ptr noundef nonnull align 8 dereferenceable(16) %3) #7
  ret ptr %81
}