; Function Attrs: mustprogress nounwind uwtable
define hidden noundef ptr @_ZN13StubGenerator22generate_multiplyToLenEv(ptr noundef nonnull align 8 dereferenceable(24) %0) local_unnamed_addr #0 align 2 {
  %2 = alloca %class.StubCodeMark, align 8
  %3 = getelementptr inbounds i8, ptr %0, i64 16
  %4 = load ptr, ptr %3, align 8
  %5 = load i64, ptr @CodeEntryAlignment, align 8
  %6 = trunc i64 %5 to i32
  tail call void @_ZN14MacroAssembler5alignEj(ptr noundef nonnull align 8 dereferenceable(40) %4, i32 noundef %6) #12
  call void @_ZN12StubCodeMarkC1EP17StubCodeGeneratorPKcS3_(ptr noundef nonnull align 8 dereferenceable(16) %2, ptr noundef nonnull %0, ptr noundef nonnull @.str, ptr noundef nonnull @.str.44) #12
  %7 = load ptr, ptr %3, align 8
  %8 = getelementptr inbounds i8, ptr %7, i64 8
  %9 = load ptr, ptr %8, align 8
  %10 = getelementptr inbounds i8, ptr %9, i64 16
  %11 = load ptr, ptr %10, align 8
  call void @_ZN14MacroAssembler5enterEv(ptr noundef nonnull align 8 dereferenceable(40) %7) #12
  %12 = load ptr, ptr %3, align 8
  call void @_ZN14MacroAssembler6movptrE8RegisterS0_(ptr noundef nonnull align 8 dereferenceable(40) %12, i32 0, i32 6) #12
  %13 = load ptr, ptr %3, align 8
  call void @_ZN14MacroAssembler6movptrE8RegisterS0_(ptr noundef nonnull align 8 dereferenceable(40) %13, i32 6, i32 2) #12
  %14 = load ptr, ptr %3, align 8
  call void @_ZN14MacroAssembler15multiply_to_lenE8RegisterS0_S0_S0_S0_S0_S0_S0_S0_S0_S0_(ptr noundef nonnull align 8 dereferenceable(40) %14, i32 7, i32 0, i32 6, i32 1, i32 8, i32 11, i32 12, i32 13, i32 14, i32 15, i32 3) #12
  %15 = load ptr, ptr %3, align 8
  call void @_ZN14MacroAssembler5leaveEv(ptr noundef nonnull align 8 dereferenceable(40) %15) #12
  %16 = load ptr, ptr %3, align 8
  call void @_ZN9Assembler3retEi(ptr noundef nonnull align 8 dereferenceable(40) %16, i32 noundef 0) #12
  call void @_ZN12StubCodeMarkD1Ev(ptr noundef nonnull align 8 dereferenceable(16) %2) #12
  ret ptr %11
}